; Function Attrs: mustprogress uwtable
define void @_ZN5Ipopt22BacktrackingLineSearch12StopWatchDogEv(ptr noundef nonnull align 8 captures(none) dereferenceable(264) %0) local_unnamed_addr #6 align 2 personality ptr @__gxx_personality_v0 {
  %2 = alloca %"class.Ipopt::SmartPtr.37", align 8
  %3 = getelementptr inbounds nuw i8, ptr %0, i64 160
  %4 = load i8, ptr %3, align 8, !tbaa !10, !range !85, !noundef !86
  %5 = trunc nuw i8 %4 to i1
  br i1 %5, label %6, label %18

6:                                                ; preds = %1
  call void @llvm.lifetime.start.p0(i64 8, ptr nonnull %2) #25
  store ptr null, ptr %2, align 8, !tbaa !83
  invoke void @_ZN5Ipopt22BacktrackingLineSearch12StopWatchDogERNS_8SmartPtrINS_14IteratesVectorEEE(ptr noundef nonnull align 8 dereferenceable(264) %0, ptr noundef nonnull align 8 dereferenceable(8) %2)
          to label %7 unwind label %19

7:                                                ; preds = %6
  %8 = load ptr, ptr %2, align 8, !tbaa !83
  %.not.i.i = icmp eq ptr %8, null
  br i1 %.not.i.i, label %_ZN5Ipopt8SmartPtrINS_14IteratesVectorEED2Ev.exit, label %9

9:                                                ; preds = %7
  %10 = getelementptr inbounds nuw i8, ptr %8, i64 8
  %11 = load i32, ptr %10, align 8, !tbaa !3
  %12 = add nsw i32 %11, -1
  store i32 %12, ptr %10, align 8, !tbaa !3
  %13 = icmp eq i32 %12, 0
  br i1 %13, label %14, label %_ZN5Ipopt8SmartPtrINS_14IteratesVectorEED2Ev.exit

14:                                               ; preds = %9
  %15 = load ptr, ptr %8, align 8, !tbaa !8
  %16 = getelementptr inbounds nuw i8, ptr %15, i64 8
  %17 = load ptr, ptr %16, align 8
  tail call void %17(ptr noundef nonnull align 8 dereferenceable(280) %8) #25
  br label %_ZN5Ipopt8SmartPtrINS_14IteratesVectorEED2Ev.exit

_ZN5Ipopt8SmartPtrINS_14IteratesVectorEED2Ev.exit: ; preds = %7, %9, %14
  call void @llvm.lifetime.end.p0(i64 8, ptr nonnull %2) #25
  br label %18

18:                                               ; preds = %1, %_ZN5Ipopt8SmartPtrINS_14IteratesVectorEED2Ev.exit
  ret void

19:                                               ; preds = %6
  %20 = landingpad { ptr, i32 }
          cleanup
  %21 = load ptr, ptr %2, align 8, !tbaa !83
  %.not.i.i2 = icmp eq ptr %21, null
  br i1 %.not.i.i2, label %_ZN5Ipopt8SmartPtrINS_14IteratesVectorEED2Ev.exit3, label %22

22:                                               ; preds = %19
  %23 = getelementptr inbounds nuw i8, ptr %21, i64 8
  %24 = load i32, ptr %23, align 8, !tbaa !3
  %25 = add nsw i32 %24, -1
  store i32 %25, ptr %23, align 8, !tbaa !3
  %26 = icmp eq i32 %25, 0
  br i1 %26, label %27, label %_ZN5Ipopt8SmartPtrINS_14IteratesVectorEED2Ev.exit3

27:                                               ; preds = %22
  %28 = load ptr, ptr %21, align 8, !tbaa !8
  %29 = getelementptr inbounds nuw i8, ptr %28, i64 8
  %30 = load ptr, ptr %29, align 8
  tail call void %30(ptr noundef nonnull align 8 dereferenceable(280) %21) #25
  br label %_ZN5Ipopt8SmartPtrINS_14IteratesVectorEED2Ev.exit3

_ZN5Ipopt8SmartPtrINS_14IteratesVectorEED2Ev.exit3: ; preds = %19, %22, %27
  call void @llvm.lifetime.end.p0(i64 8, ptr nonnull %2) #25
  resume { ptr, i32 } %20
}